; Function Attrs: mustprogress uwtable
define hidden void @_ZNK4cvc58internal6theory5arith2nl9IAndUtils6twoToKEj(ptr dead_on_unwind noalias writable sret(%"class.cvc5::internal::NodeTemplate") align 8 %0, ptr noundef nonnull readonly align 8 captures(none) dereferenceable(72) %1, i32 noundef %2) local_unnamed_addr #3 align 2 personality ptr @__gxx_personality_v0 {
  %4 = alloca %"class.cvc5::internal::NodeBuilder", align 8
  %5 = alloca %"class.cvc5::internal::NodeTemplate.67", align 8
  %6 = alloca %"class.cvc5::internal::NodeTemplate.67", align 8
  %7 = alloca %"class.cvc5::internal::NodeTemplate", align 8
  %8 = alloca %"class.cvc5::internal::Rational", align 8
  %9 = tail call noundef ptr @_ZN4cvc58internal11NodeManager9currentNMEv()
  %10 = getelementptr inbounds nuw i8, ptr %1, i64 64
  %11 = load ptr, ptr %10, align 8, !tbaa !6
  call void @llvm.lifetime.start.p0(i64 8, ptr nonnull %7) #16
  call void @llvm.lifetime.start.p0(i64 32, ptr nonnull %8) #16
  call void @_ZN4cvc58internal8RationalC2Ej(ptr noundef nonnull align 8 dereferenceable(32) %8, i32 noundef %2)
  invoke void @_ZN4cvc58internal11NodeManager10mkConstIntERKNS0_8RationalE(ptr dead_on_unwind nonnull writable sret(%"class.cvc5::internal::NodeTemplate") align 8 %7, ptr noundef nonnull align 8 dereferenceable(3560) %9, ptr noundef nonnull align 8 dereferenceable(32) %8)
          to label %12 unwind label %44

12:                                               ; preds = %3
  %13 = load ptr, ptr %7, align 8, !tbaa !6
  call void @llvm.lifetime.start.p0(i64 8, ptr nonnull %5)
  call void @llvm.lifetime.start.p0(i64 8, ptr nonnull %6)
  call void @llvm.lifetime.start.p0(i64 128, ptr nonnull %4) #16, !noalias !91
  %14 = getelementptr inbounds nuw i8, ptr %11, i64 16
  %15 = load ptr, ptr %14, align 8, !tbaa !15, !noalias !91
  invoke void @_ZN4cvc58internal11NodeBuilderC1EPNS0_11NodeManagerENS0_4kind6Kind_tE(ptr noundef nonnull align 8 dereferenceable(124) %4, ptr noundef %15, i32 noundef 52)
          to label %.noexc unwind label %46

.noexc:                                           ; preds = %12
  store ptr %11, ptr %5, align 8, !tbaa !20, !noalias !91
  %16 = invoke noundef nonnull align 8 dereferenceable(124) ptr @_ZN4cvc58internal11NodeBuilderlsENS0_12NodeTemplateILb0EEE(ptr noundef nonnull align 8 dereferenceable(124) %4, ptr noundef nonnull %5)
          to label %17 unwind label %22, !noalias !91

17:                                               ; preds = %.noexc
  store ptr %13, ptr %6, align 8, !tbaa !20, !noalias !91
  %18 = invoke noundef nonnull align 8 dereferenceable(124) ptr @_ZN4cvc58internal11NodeBuilderlsENS0_12NodeTemplateILb0EEE(ptr noundef nonnull align 8 dereferenceable(124) %16, ptr noundef nonnull %6)
          to label %19 unwind label %24, !noalias !91

19:                                               ; preds = %17
  invoke void @_ZN4cvc58internal11NodeBuilder13constructNodeEv(ptr dead_on_unwind writable sret(%"class.cvc5::internal::NodeTemplate") align 8 %0, ptr noundef nonnull align 8 dereferenceable(124) %4)
          to label %27 unwind label %20

20:                                               ; preds = %19
  %21 = landingpad { ptr, i32 }
          cleanup
  br label %26

22:                                               ; preds = %.noexc
  %23 = landingpad { ptr, i32 }
          cleanup
  br label %26

24:                                               ; preds = %17
  %25 = landingpad { ptr, i32 }
          cleanup
  br label %26

26:                                               ; preds = %24, %22, %20
  %.pn5.i = phi { ptr, i32 } [ %21, %20 ], [ %25, %24 ], [ %23, %22 ]
  call void @_ZN4cvc58internal11NodeBuilderD1Ev(ptr noundef nonnull align 8 dereferenceable(124) %4) #16
  call void @llvm.lifetime.end.p0(i64 128, ptr nonnull %4) #16, !noalias !91
  br label %.body

27:                                               ; preds = %19
  call void @_ZN4cvc58internal11NodeBuilderD1Ev(ptr noundef nonnull align 8 dereferenceable(124) %4) #16
  call void @llvm.lifetime.end.p0(i64 128, ptr nonnull %4) #16, !noalias !91
  call void @llvm.lifetime.end.p0(i64 8, ptr nonnull %5)
  call void @llvm.lifetime.end.p0(i64 8, ptr nonnull %6)
  %28 = load ptr, ptr %7, align 8, !tbaa !6
  %29 = load i64, ptr %28, align 8
  %30 = and i64 %29, 1152920405095219200
  %.not.i.i = icmp eq i64 %30, 1152920405095219200
  br i1 %.not.i.i, label %_ZN4cvc58internal12NodeTemplateILb1EED2Ev.exit, label %31, !prof !25

31:                                               ; preds = %27
  %32 = add i64 %29, 1152920405095219200
  %33 = and i64 %32, 1152920405095219200
  %34 = and i64 %29, -1152920405095219201
  %35 = or disjoint i64 %33, %34
  store i64 %35, ptr %28, align 8
  %36 = icmp eq i64 %33, 0
  br i1 %36, label %37, label %_ZN4cvc58internal12NodeTemplateILb1EED2Ev.exit, !prof !25

37:                                               ; preds = %31
  invoke void @_ZN4cvc58internal4expr9NodeValue15markForDeletionEv(ptr noundef nonnull align 8 dereferenceable(24) %28)
          to label %_ZN4cvc58internal12NodeTemplateILb1EED2Ev.exit unwind label %38

38:                                               ; preds = %37
  %39 = landingpad { ptr, i32 }
          catch ptr null
  %40 = extractvalue { ptr, i32 } %39, 0
  call void @__clang_call_terminate(ptr %40) #17
  unreachable

_ZN4cvc58internal12NodeTemplateILb1EED2Ev.exit:   ; preds = %27, %31, %37
  invoke void @__gmpq_clear(ptr noundef nonnull align 8 dereferenceable(32) %8)
          to label %_ZN4cvc58internal8RationalD2Ev.exit unwind label %41

41:                                               ; preds = %_ZN4cvc58internal12NodeTemplateILb1EED2Ev.exit
  %42 = landingpad { ptr, i32 }
          catch ptr null
  %43 = extractvalue { ptr, i32 } %42, 0
  call void @__clang_call_terminate(ptr %43) #17
  unreachable

_ZN4cvc58internal8RationalD2Ev.exit:              ; preds = %_ZN4cvc58internal12NodeTemplateILb1EED2Ev.exit
  call void @llvm.lifetime.end.p0(i64 32, ptr nonnull %8) #16
  call void @llvm.lifetime.end.p0(i64 8, ptr nonnull %7) #16
  ret void

44:                                               ; preds = %3
  %45 = landingpad { ptr, i32 }
          cleanup
  br label %48

46:                                               ; preds = %12
  %47 = landingpad { ptr, i32 }
          cleanup
  br label %.body

.body:                                            ; preds = %26, %46
  %eh.lpad-body = phi { ptr, i32 } [ %47, %46 ], [ %.pn5.i, %26 ]
  call void @_ZN4cvc58internal12NodeTemplateILb1EED2Ev(ptr noundef nonnull align 8 dereferenceable(8) %7) #16
  br label %48

48:                                               ; preds = %.body, %44
  %.pn = phi { ptr, i32 } [ %eh.lpad-body, %.body ], [ %45, %44 ]
  invoke void @__gmpq_clear(ptr noundef nonnull align 8 dereferenceable(32) %8)
          to label %_ZN4cvc58internal8RationalD2Ev.exit8 unwind label %49

49:                                               ; preds = %48
  %50 = landingpad { ptr, i32 }
          catch ptr null
  %51 = extractvalue { ptr, i32 } %50, 0
  call void @__clang_call_terminate(ptr %51) #17
  unreachable

_ZN4cvc58internal8RationalD2Ev.exit8:             ; preds = %48
  call void @llvm.lifetime.end.p0(i64 32, ptr nonnull %8) #16
  call void @llvm.lifetime.end.p0(i64 8, ptr nonnull %7) #16
  resume { ptr, i32 } %.pn
}